; ModuleID = 'source-C-CXX/44/1127.c'
source_filename = "source-C-CXX/44/1127.c"
target datalayout = "e-m:e-p270:32:32-p271:32:32-p272:64:64-i64:64-f80:128-n8:16:32:64-S128"
target triple = "x86_64-pc-linux-gnu"

@.str = private unnamed_addr constant [5 x i8] c"%s%s\00", align 1
@.str.1 = private unnamed_addr constant [3 x i8] c"%d\00", align 1

; Function Attrs: nofree nounwind sspstrong uwtable
define dso_local i32 @main() local_unnamed_addr #0 {
  %1 = alloca [50 x i8], align 16
  %2 = alloca [50 x i8], align 16
  %3 = getelementptr inbounds [50 x i8], [50 x i8]* %1, i64 0, i64 0
  call void @llvm.lifetime.start.p0i8(i64 50, i8* nonnull %3) #4
  %4 = getelementptr inbounds [50 x i8], [50 x i8]* %2, i64 0, i64 0
  call void @llvm.lifetime.start.p0i8(i64 50, i8* nonnull %4) #4
  %5 = call i32 (i8*, ...) @__isoc99_scanf(i8* getelementptr inbounds ([5 x i8], [5 x i8]* @.str, i64 0, i64 0), i8* nonnull %3, i8* nonnull %4)
  %6 = call i64 @strlen(i8* noundef nonnull %3) #5
  %7 = icmp eq i64 %6, 0
  br i1 %7, label %34, label %8

8:                                                ; preds = %0
  %9 = call i64 @strlen(i8* noundef nonnull %4) #5
  %10 = add i64 %9, 1
  %11 = sub i64 %10, %6
  br label %12

12:                                               ; preds = %8, %26
  %13 = phi i64 [ 0, %8 ], [ %27, %26 ]
  br label %14

14:                                               ; preds = %12, %29
  %15 = phi i64 [ 0, %12 ], [ %30, %29 ]
  %16 = getelementptr inbounds [50 x i8], [50 x i8]* %1, i64 0, i64 %15
  %17 = load i8, i8* %16, align 1, !tbaa !5
  %18 = add nuw nsw i64 %15, %13
  %19 = getelementptr inbounds [50 x i8], [50 x i8]* %2, i64 0, i64 %18
  %20 = load i8, i8* %19, align 1, !tbaa !5
  %21 = icmp eq i8 %17, %20
  br i1 %21, label %29, label %22

22:                                               ; preds = %29, %14
  %23 = phi i64 [ %15, %14 ], [ %6, %29 ]
  %24 = and i64 %23, 4294967295
  %25 = icmp eq i64 %6, %24
  br i1 %25, label %32, label %26

26:                                               ; preds = %22
  %27 = add nuw i64 %13, 1
  %28 = icmp eq i64 %27, %11
  br i1 %28, label %37, label %12, !llvm.loop !8

29:                                               ; preds = %14
  %30 = add nuw i64 %15, 1
  %31 = icmp eq i64 %30, %6
  br i1 %31, label %22, label %14, !llvm.loop !10

32:                                               ; preds = %22
  %33 = trunc i64 %13 to i32
  br label %34

34:                                               ; preds = %0, %32
  %35 = phi i32 [ %33, %32 ], [ 0, %0 ]
  %36 = call i32 (i8*, ...) @printf(i8* nonnull dereferenceable(1) getelementptr inbounds ([3 x i8], [3 x i8]* @.str.1, i64 0, i64 0), i32 %35)
  br label %37

37:                                               ; preds = %26, %34
  call void @llvm.lifetime.end.p0i8(i64 50, i8* nonnull %4) #4
  call void @llvm.lifetime.end.p0i8(i64 50, i8* nonnull %3) #4
  ret i32 0
}

; Function Attrs: argmemonly mustprogress nofree nosync nounwind willreturn
declare void @llvm.lifetime.start.p0i8(i64 immarg, i8* nocapture) #1

; Function Attrs: nofree nounwind
declare noundef i32 @__isoc99_scanf(i8* nocapture noundef readonly, ...) local_unnamed_addr #2

; Function Attrs: argmemonly mustprogress nofree nounwind readonly willreturn
declare i64 @strlen(i8* nocapture) local_unnamed_addr #3

; Function Attrs: nofree nounwind
declare noundef i32 @printf(i8* nocapture noundef readonly, ...) local_unnamed_addr #2

; Function Attrs: argmemonly mustprogress nofree nosync nounwind willreturn
declare void @llvm.lifetime.end.p0i8(i64 immarg, i8* nocapture) #1


!llvm.module.flags = !{!0, !1, !2, !3}
!llvm.ident = !{!4}

!0 = !{i32 1, !"wchar_size", i32 4}
!1 = !{i32 7, !"PIC Level", i32 2}
!2 = !{i32 7, !"PIE Level", i32 2}
!3 = !{i32 7, !"uwtable", i32 1}
!4 = !{!"clang version 13.0.0"}
!5 = !{!6, !6, i64 0}
!6 = !{!"omnipotent char", !7, i64 0}
!7 = !{!"Simple C/C++ TBAA"}
!8 = distinct !{!8, !9}
!9 = !{!"llvm.loop.mustprogress"}
!10 = distinct !{!10, !9}
